target datalayout = "e-m:e-p270:32:32-p271:32:32-p272:64:64-i64:64-i128:128-f80:128-n8:16:32:64-S128"
target triple = "x86_64-unknown-linux-gnu"

%"struct.icu_75::CollationSettings" = type <{ %"class.icu_75::SharedObject", i32, i32, ptr, i32, [4 x i8], ptr, i32, [4 x i8], ptr, i32, i32, i32, [384 x i16], [4 x i8] }>
%"class.icu_75::SharedObject" = type { %"class.icu_75::UObject", i32, %"struct.std::atomic", ptr }
%"class.icu_75::UObject" = type { ptr }
%"struct.std::atomic" = type { %"struct.std::__atomic_base" }
%"struct.std::__atomic_base" = type { i32 }

; Function Attrs: mustprogress nounwind uwtable
define noundef i32 @_ZNK6icu_7517CollationSettings8hashCodeEv(ptr noundef nonnull align 8 dereferenceable(852) %this) #1 align 2 {
entry:
  %this.addr = alloca ptr, align 8
  %h = alloca i32, align 4
  %i = alloca i32, align 4
  store ptr %this, ptr %this.addr, align 8
  %this1 = load ptr, ptr %this.addr, align 8
  %options = getelementptr inbounds %"struct.icu_75::CollationSettings", ptr %this1, i32 0, i32 1
  %0 = load i32, ptr %options, align 8
  %shl = shl i32 %0, 8
  store i32 %shl, ptr %h, align 4
  %options2 = getelementptr inbounds %"struct.icu_75::CollationSettings", ptr %this1, i32 0, i32 1
  %1 = load i32, ptr %options2, align 8
  %and = and i32 %1, 12
  %cmp = icmp ne i32 %and, 0
  br i1 %cmp, label %if.then, label %if.end

if.then:                                          ; preds = %entry
  %variableTop = getelementptr inbounds %"struct.icu_75::CollationSettings", ptr %this1, i32 0, i32 2
  %2 = load i32, ptr %variableTop, align 4
  %3 = load i32, ptr %h, align 4
  %xor = xor i32 %3, %2
  store i32 %xor, ptr %h, align 4
  br label %if.end

if.end:                                           ; preds = %if.then, %entry
  %reorderCodesLength = getelementptr inbounds %"struct.icu_75::CollationSettings", ptr %this1, i32 0, i32 10
  %4 = load i32, ptr %reorderCodesLength, align 8
  %5 = load i32, ptr %h, align 4
  %xor3 = xor i32 %5, %4
  store i32 %xor3, ptr %h, align 4
  store i32 0, ptr %i, align 4
  br label %for.cond

for.cond:                                         ; preds = %for.inc, %if.end
  %6 = load i32, ptr %i, align 4
  %reorderCodesLength4 = getelementptr inbounds %"struct.icu_75::CollationSettings", ptr %this1, i32 0, i32 10
  %7 = load i32, ptr %reorderCodesLength4, align 8
  %cmp5 = icmp slt i32 %6, %7
  br i1 %cmp5, label %for.body, label %for.end

for.body:                                         ; preds = %for.cond
  %reorderCodes = getelementptr inbounds %"struct.icu_75::CollationSettings", ptr %this1, i32 0, i32 9
  %8 = load ptr, ptr %reorderCodes, align 8
  %9 = load i32, ptr %i, align 4
  %idxprom = sext i32 %9 to i64
  %arrayidx = getelementptr inbounds i32, ptr %8, i64 %idxprom
  %10 = load i32, ptr %arrayidx, align 4
  %11 = load i32, ptr %i, align 4
  %shl6 = shl i32 %10, %11
  %12 = load i32, ptr %h, align 4
  %xor7 = xor i32 %12, %shl6
  store i32 %xor7, ptr %h, align 4
  br label %for.inc

for.inc:                                          ; preds = %for.body
  %13 = load i32, ptr %i, align 4
  %inc = add nsw i32 %13, 1
  store i32 %inc, ptr %i, align 4
  br label %for.cond, !llvm.loop !6

for.end:                                          ; preds = %for.cond
  %14 = load i32, ptr %h, align 4
  ret i32 %14
}