; Function Attrs: mustprogress nofree norecurse nosync nounwind willreturn memory(read, inaccessiblemem: none) uwtable
define noundef i32 @_ZNK6icu_7517CollationSettings8hashCodeEv(ptr nocapture noundef nonnull readonly align 8 dereferenceable(852) %this) local_unnamed_addr #6 align 2 {
entry:
  %options = getelementptr inbounds i8, ptr %this, i64 24
  %0 = load i32, ptr %options, align 8
  %shl = shl i32 %0, 8
  %and = and i32 %0, 12
  %cmp.not = icmp eq i32 %and, 0
  %variableTop = getelementptr inbounds i8, ptr %this, i64 28
  %1 = load i32, ptr %variableTop, align 4
  %xor = select i1 %cmp.not, i32 0, i32 %1
  %reorderCodesLength = getelementptr inbounds i8, ptr %this, i64 72
  %2 = load i32, ptr %reorderCodesLength, align 8
  %3 = xor i32 %shl, %xor
  %xor3 = xor i32 %3, %2
  %cmp57 = icmp sgt i32 %2, 0
  br i1 %cmp57, label %for.body.lr.ph, label %for.end

for.body.lr.ph:                                   ; preds = %entry
  %reorderCodes = getelementptr inbounds i8, ptr %this, i64 64
  %4 = load ptr, ptr %reorderCodes, align 8
  %wide.trip.count = zext nneg i32 %2 to i64
  br label %for.body

for.body:                                         ; preds = %for.body.lr.ph, %for.body
  %indvars.iv = phi i64 [ 0, %for.body.lr.ph ], [ %indvars.iv.next, %for.body ]
  %h.18 = phi i32 [ %xor3, %for.body.lr.ph ], [ %xor7, %for.body ]
  %arrayidx = getelementptr inbounds i32, ptr %4, i64 %indvars.iv
  %5 = load i32, ptr %arrayidx, align 4
  %6 = trunc i64 %indvars.iv to i32
  %shl6 = shl i32 %5, %6
  %xor7 = xor i32 %shl6, %h.18
  %indvars.iv.next = add nuw nsw i64 %indvars.iv, 1
  %exitcond.not = icmp eq i64 %indvars.iv.next, %wide.trip.count
  br i1 %exitcond.not, label %for.end, label %for.body, !llvm.loop !6

for.end:                                          ; preds = %for.body, %entry
  %h.1.lcssa = phi i32 [ %xor3, %entry ], [ %xor7, %for.body ]
  ret i32 %h.1.lcssa
}